; Function Attrs: mustprogress nofree norecurse nosync nounwind memory(argmem: readwrite, inaccessiblemem: readwrite) uwtable
define hidden void @_ZN2cv6dynafudvERKNS0_10QuaternionEf(ptr dead_on_unwind noalias writable writeonly sret(%"class.cv::dynafu::Quaternion") align 4 captures(none) %0, ptr noundef nonnull readonly align 4 captures(none) dereferenceable(16) %1, float noundef %2) local_unnamed_addr #6 {
  %4 = alloca %"class.cv::Vec", align 4
  call void @llvm.lifetime.start.p0(i64 16, ptr nonnull %4) #18
  tail call void @llvm.experimental.noalias.scope.decl(metadata !22)
  %5 = fdiv float 1.000000e+00, %2
  br label %6

6:                                                ; preds = %6, %3
  %indvars.iv.i.i.i = phi i64 [ 0, %3 ], [ %indvars.iv.next.i.i.i, %6 ]
  %7 = getelementptr inbounds nuw [4 x float], ptr %1, i64 0, i64 %indvars.iv.i.i.i
  %8 = load float, ptr %7, align 4, !tbaa !3, !noalias !22
  %9 = fmul float %5, %8
  %10 = getelementptr inbounds nuw [4 x float], ptr %4, i64 0, i64 %indvars.iv.i.i.i
  store float %9, ptr %10, align 4, !tbaa !3, !alias.scope !22
  %indvars.iv.next.i.i.i = add nuw nsw i64 %indvars.iv.i.i.i, 1
  %exitcond.not.i.i.i = icmp eq i64 %indvars.iv.next.i.i.i, 4
  br i1 %exitcond.not.i.i.i, label %_ZN2cvdvIfLi4EEENS_3VecIT_XT0_EEERKS3_f.exit, label %6, !llvm.loop !14

_ZN2cvdvIfLi4EEENS_3VecIT_XT0_EEERKS3_f.exit:     ; preds = %6
  %11 = load float, ptr %4, align 4, !tbaa !3
  %12 = getelementptr inbounds nuw i8, ptr %4, i64 4
  %13 = load float, ptr %12, align 4, !tbaa !3
  %14 = getelementptr inbounds nuw i8, ptr %4, i64 8
  %15 = load float, ptr %14, align 4, !tbaa !3
  %16 = getelementptr inbounds nuw i8, ptr %4, i64 12
  %17 = load float, ptr %16, align 4, !tbaa !3
  store float %11, ptr %0, align 4, !tbaa !3
  %18 = getelementptr inbounds nuw i8, ptr %0, i64 4
  store float %13, ptr %18, align 4, !tbaa !3
  %19 = getelementptr inbounds nuw i8, ptr %0, i64 8
  store float %15, ptr %19, align 4, !tbaa !3
  %20 = getelementptr inbounds nuw i8, ptr %0, i64 12
  store float %17, ptr %20, align 4, !tbaa !3
  call void @llvm.lifetime.end.p0(i64 16, ptr nonnull %4) #18
  ret void
}